target datalayout = "e-m:e-p270:32:32-p271:32:32-p272:64:64-i64:64-i128:128-f80:128-n8:16:32:64-S128"
target triple = "x86_64-pc-linux-gnu"

%"class.icu_77::UCharCharacterIterator" = type { %"class.icu_77::CharacterIterator", ptr }
%"class.icu_77::CharacterIterator" = type { %"class.icu_77::ForwardCharacterIterator", i32, i32, i32, i32 }
%"class.icu_77::ForwardCharacterIterator" = type { %"class.icu_77::UObject" }
%"class.icu_77::UObject" = type { ptr }

; Function Attrs: mustprogress nounwind uwtable
define noundef i32 @_ZN6icu_7722UCharCharacterIterator10setIndex32Ei(ptr noundef nonnull align 8 dereferenceable(32) %0, i32 noundef %1) unnamed_addr #0 align 2 {
  %3 = alloca i32, align 4
  %4 = alloca ptr, align 8
  %5 = alloca i32, align 4
  %6 = alloca i32, align 4
  %7 = alloca i32, align 4
  %8 = alloca i16, align 2
  store ptr %0, ptr %4, align 8, !tbaa !3
  store i32 %1, ptr %5, align 4, !tbaa !19
  %9 = load ptr, ptr %4, align 8
  %10 = load i32, ptr %5, align 4, !tbaa !19
  %11 = getelementptr inbounds nuw %"class.icu_77::CharacterIterator", ptr %9, i32 0, i32 3
  %12 = load i32, ptr %11, align 8, !tbaa !24
  %13 = icmp slt i32 %10, %12
  br i1 %13, label %14, label %17

14:                                               ; preds = %2
  %15 = getelementptr inbounds nuw %"class.icu_77::CharacterIterator", ptr %9, i32 0, i32 3
  %16 = load i32, ptr %15, align 8, !tbaa !24
  store i32 %16, ptr %5, align 4, !tbaa !19
  br label %26

17:                                               ; preds = %2
  %18 = load i32, ptr %5, align 4, !tbaa !19
  %19 = getelementptr inbounds nuw %"class.icu_77::CharacterIterator", ptr %9, i32 0, i32 4
  %20 = load i32, ptr %19, align 4, !tbaa !25
  %21 = icmp sgt i32 %18, %20
  br i1 %21, label %22, label %25

22:                                               ; preds = %17
  %23 = getelementptr inbounds nuw %"class.icu_77::CharacterIterator", ptr %9, i32 0, i32 4
  %24 = load i32, ptr %23, align 4, !tbaa !25
  store i32 %24, ptr %5, align 4, !tbaa !19
  br label %25

25:                                               ; preds = %22, %17
  br label %26

26:                                               ; preds = %25, %14
  %27 = load i32, ptr %5, align 4, !tbaa !19
  %28 = getelementptr inbounds nuw %"class.icu_77::CharacterIterator", ptr %9, i32 0, i32 4
  %29 = load i32, ptr %28, align 4, !tbaa !25
  %30 = icmp slt i32 %27, %29
  br i1 %30, label %31, label %106

31:                                               ; preds = %26
  br label %32

32:                                               ; preds = %31
  %33 = getelementptr inbounds nuw %"class.icu_77::UCharCharacterIterator", ptr %9, i32 0, i32 1
  %34 = load ptr, ptr %33, align 8, !tbaa !10
  %35 = load i32, ptr %5, align 4, !tbaa !19
  %36 = sext i32 %35 to i64
  %37 = getelementptr inbounds i16, ptr %34, i64 %36
  %38 = load i16, ptr %37, align 2, !tbaa !28
  %39 = zext i16 %38 to i32
  %40 = and i32 %39, -1024
  %41 = icmp eq i32 %40, 56320
  br i1 %41, label %42, label %61

42:                                               ; preds = %32
  %43 = load i32, ptr %5, align 4, !tbaa !19
  %44 = getelementptr inbounds nuw %"class.icu_77::CharacterIterator", ptr %9, i32 0, i32 3
  %45 = load i32, ptr %44, align 8, !tbaa !24
  %46 = icmp sgt i32 %43, %45
  br i1 %46, label %47, label %61

47:                                               ; preds = %42
  %48 = getelementptr inbounds nuw %"class.icu_77::UCharCharacterIterator", ptr %9, i32 0, i32 1
  %49 = load ptr, ptr %48, align 8, !tbaa !10
  %50 = load i32, ptr %5, align 4, !tbaa !19
  %51 = sub nsw i32 %50, 1
  %52 = sext i32 %51 to i64
  %53 = getelementptr inbounds i16, ptr %49, i64 %52
  %54 = load i16, ptr %53, align 2, !tbaa !28
  %55 = zext i16 %54 to i32
  %56 = and i32 %55, -1024
  %57 = icmp eq i32 %56, 55296
  br i1 %57, label %58, label %61

58:                                               ; preds = %47
  %59 = load i32, ptr %5, align 4, !tbaa !19
  %60 = add nsw i32 %59, -1
  store i32 %60, ptr %5, align 4, !tbaa !19
  br label %61

61:                                               ; preds = %58, %47, %42, %32
  br label %62

62:                                               ; preds = %61
  call void @llvm.lifetime.start.p0(i64 4, ptr %6) #7
  %63 = load i32, ptr %5, align 4, !tbaa !19
  %64 = getelementptr inbounds nuw %"class.icu_77::CharacterIterator", ptr %9, i32 0, i32 2
  store i32 %63, ptr %64, align 4, !tbaa !23
  store i32 %63, ptr %6, align 4, !tbaa !19
  call void @llvm.lifetime.start.p0(i64 4, ptr %7) #7
  br label %65

65:                                               ; preds = %62
  %66 = getelementptr inbounds nuw %"class.icu_77::UCharCharacterIterator", ptr %9, i32 0, i32 1
  %67 = load ptr, ptr %66, align 8, !tbaa !10
  %68 = load i32, ptr %6, align 4, !tbaa !19
  %69 = add nsw i32 %68, 1
  store i32 %69, ptr %6, align 4, !tbaa !19
  %70 = sext i32 %68 to i64
  %71 = getelementptr inbounds i16, ptr %67, i64 %70
  %72 = load i16, ptr %71, align 2, !tbaa !28
  %73 = zext i16 %72 to i32
  store i32 %73, ptr %7, align 4, !tbaa !19
  %74 = load i32, ptr %7, align 4, !tbaa !19
  %75 = and i32 %74, -1024
  %76 = icmp eq i32 %75, 55296
  br i1 %76, label %77, label %102

77:                                               ; preds = %65
  call void @llvm.lifetime.start.p0(i64 2, ptr %8) #7
  %78 = load i32, ptr %6, align 4, !tbaa !19
  %79 = getelementptr inbounds nuw %"class.icu_77::CharacterIterator", ptr %9, i32 0, i32 4
  %80 = load i32, ptr %79, align 4, !tbaa !25
  %81 = icmp ne i32 %78, %80
  br i1 %81, label %82, label %101

82:                                               ; preds = %77
  %83 = getelementptr inbounds nuw %"class.icu_77::UCharCharacterIterator", ptr %9, i32 0, i32 1
  %84 = load ptr, ptr %83, align 8, !tbaa !10
  %85 = load i32, ptr %6, align 4, !tbaa !19
  %86 = sext i32 %85 to i64
  %87 = getelementptr inbounds i16, ptr %84, i64 %86
  %88 = load i16, ptr %87, align 2, !tbaa !28
  store i16 %88, ptr %8, align 2, !tbaa !30
  %89 = zext i16 %88 to i32
  %90 = and i32 %89, -1024
  %91 = icmp eq i32 %90, 56320
  br i1 %91, label %92, label %101

92:                                               ; preds = %82
  %93 = load i32, ptr %6, align 4, !tbaa !19
  %94 = add nsw i32 %93, 1
  store i32 %94, ptr %6, align 4, !tbaa !19
  %95 = load i32, ptr %7, align 4, !tbaa !19
  %96 = shl i32 %95, 10
  %97 = load i16, ptr %8, align 2, !tbaa !30
  %98 = zext i16 %97 to i32
  %99 = add nsw i32 %96, %98
  %100 = sub nsw i32 %99, 56613888
  store i32 %100, ptr %7, align 4, !tbaa !19
  br label %101

101:                                              ; preds = %92, %82, %77
  call void @llvm.lifetime.end.p0(i64 2, ptr %8) #7
  br label %102

102:                                              ; preds = %101, %65
  br label %103

103:                                              ; preds = %102
  br label %104

104:                                              ; preds = %103
  %105 = load i32, ptr %7, align 4, !tbaa !19
  store i32 %105, ptr %3, align 4
  call void @llvm.lifetime.end.p0(i64 4, ptr %7) #7
  call void @llvm.lifetime.end.p0(i64 4, ptr %6) #7
  br label %109

106:                                              ; preds = %26
  %107 = load i32, ptr %5, align 4, !tbaa !19
  %108 = getelementptr inbounds nuw %"class.icu_77::CharacterIterator", ptr %9, i32 0, i32 2
  store i32 %107, ptr %108, align 4, !tbaa !23
  store i32 65535, ptr %3, align 4
  br label %109

109:                                              ; preds = %106, %104
  %110 = load i32, ptr %3, align 4
  ret i32 %110
}