; Function Attrs: mustprogress nofree norecurse nosync nounwind willreturn memory(read, argmem: readwrite, inaccessiblemem: none) uwtable
define noundef range(i32 0, 10559488) i32 @_ZN6icu_7722UCharCharacterIterator10setIndex32Ei(ptr noundef nonnull align 8 captures(none) dereferenceable(32) initializes((12, 16)) %0, i32 noundef %1) unnamed_addr #7 align 2 {
  %3 = getelementptr inbounds nuw i8, ptr %0, i64 16
  %4 = load i32, ptr %3, align 8, !tbaa !23
  %5 = icmp slt i32 %1, %4
  %6 = getelementptr inbounds nuw i8, ptr %0, i64 20
  %7 = load i32, ptr %6, align 4
  %spec.select = tail call i32 @llvm.smin.i32(i32 %1, i32 %7)
  %.019 = select i1 %5, i32 %4, i32 %spec.select
  %8 = icmp slt i32 %.019, %7
  br i1 %8, label %9, label %42

9:                                                ; preds = %2
  %10 = getelementptr inbounds nuw i8, ptr %0, i64 24
  %11 = load ptr, ptr %10, align 8, !tbaa !6
  %12 = sext i32 %.019 to i64
  %13 = getelementptr inbounds i16, ptr %11, i64 %12
  %14 = load i16, ptr %13, align 2, !tbaa !25
  %15 = and i16 %14, -1024
  %16 = icmp eq i16 %15, -9216
  %17 = icmp sgt i32 %.019, %4
  %or.cond = and i1 %17, %16
  br i1 %or.cond, label %18, label %24

18:                                               ; preds = %9
  %19 = getelementptr i8, ptr %13, i64 -2
  %20 = load i16, ptr %19, align 2, !tbaa !25
  %21 = and i16 %20, -1024
  %22 = icmp eq i16 %21, -10240
  %23 = sext i1 %22 to i32
  %spec.select26 = add nsw i32 %.019, %23
  %.pre = sext i32 %spec.select26 to i64
  %.phi.trans.insert = getelementptr inbounds i16, ptr %11, i64 %.pre
  %.pre28 = load i16, ptr %.phi.trans.insert, align 2, !tbaa !25
  br label %24

24:                                               ; preds = %18, %9
  %25 = phi i16 [ %.pre28, %18 ], [ %14, %9 ]
  %.120 = phi i32 [ %spec.select26, %18 ], [ %.019, %9 ]
  %26 = getelementptr inbounds nuw i8, ptr %0, i64 12
  store i32 %.120, ptr %26, align 4, !tbaa !22
  %27 = add nsw i32 %.120, 1
  %28 = zext i16 %25 to i32
  %29 = and i32 %28, 64512
  %30 = icmp ne i32 %29, 55296
  %.not = icmp eq i32 %27, %7
  %or.cond27 = select i1 %30, i1 true, i1 %.not
  br i1 %or.cond27, label %44, label %31

31:                                               ; preds = %24
  %32 = sext i32 %27 to i64
  %33 = getelementptr inbounds i16, ptr %11, i64 %32
  %34 = load i16, ptr %33, align 2, !tbaa !25
  %35 = zext i16 %34 to i32
  %36 = and i32 %35, 64512
  %37 = icmp eq i32 %36, 56320
  br i1 %37, label %38, label %44

38:                                               ; preds = %31
  %39 = shl nuw nsw i32 %28, 10
  %40 = add nsw i32 %39, -56613888
  %41 = add nuw nsw i32 %40, %35
  br label %44

42:                                               ; preds = %2
  %43 = getelementptr inbounds nuw i8, ptr %0, i64 12
  store i32 %.019, ptr %43, align 4, !tbaa !22
  br label %44

44:                                               ; preds = %24, %38, %31, %42
  %.0 = phi i32 [ 65535, %42 ], [ %28, %24 ], [ %41, %38 ], [ %28, %31 ]
  ret i32 %.0
}